; Function Attrs: inlinehint mustprogress nofree norecurse nosync nounwind willreturn memory(read, inaccessiblemem: none) uwtable
define internal noundef ptr @_ZZN8pybind116class_IZ35test_submodule_multiple_inheritanceRNS_7module_EE4MVD0JZ35test_submodule_multiple_inheritanceS2_E3MVCEE8add_baseIS4_TnNSt9enable_ifIXsr7is_baseIT_EE5valueEiE4typeELi0EEEvRNS_6detail11type_recordEENUlPvE_8__invokeESE_(ptr noundef readonly %0) #31 align 2 {
  %2 = icmp eq ptr %0, null
  br i1 %2, label %_ZZN8pybind116class_IZ35test_submodule_multiple_inheritanceRNS_7module_EE4MVD0JZ35test_submodule_multiple_inheritanceS2_E3MVCEE8add_baseIS4_TnNSt9enable_ifIXsr7is_baseIT_EE5valueEiE4typeELi0EEEvRNS_6detail11type_recordEENKUlPvE_clESE_.exit, label %3

3:                                                ; preds = %1
  %4 = load ptr, ptr %0, align 8, !tbaa !1508
  %5 = getelementptr i8, ptr %4, i64 -24
  %6 = load i64, ptr %5, align 8
  %7 = getelementptr inbounds i8, ptr %0, i64 %6
  br label %_ZZN8pybind116class_IZ35test_submodule_multiple_inheritanceRNS_7module_EE4MVD0JZ35test_submodule_multiple_inheritanceS2_E3MVCEE8add_baseIS4_TnNSt9enable_ifIXsr7is_baseIT_EE5valueEiE4typeELi0EEEvRNS_6detail11type_recordEENKUlPvE_clESE_.exit

_ZZN8pybind116class_IZ35test_submodule_multiple_inheritanceRNS_7module_EE4MVD0JZ35test_submodule_multiple_inheritanceS2_E3MVCEE8add_baseIS4_TnNSt9enable_ifIXsr7is_baseIT_EE5valueEiE4typeELi0EEEvRNS_6detail11type_recordEENKUlPvE_clESE_.exit: ; preds = %1, %3
  %8 = phi ptr [ %7, %3 ], [ null, %1 ]
  ret ptr %8
}